target datalayout = "e-m:e-p270:32:32-p271:32:32-p272:64:64-i64:64-i128:128-f80:128-n8:16:32:64-S128"
target triple = "x86_64-pc-linux-gnu"

%struct.jpeg_decompress_struct = type { ptr, ptr, ptr, ptr, i32, i32, ptr, i32, i32, i32, i32, i32, i32, i32, double, i32, i32, i32, i32, i32, i32, i32, i32, i32, i32, i32, i32, i32, i32, i32, i32, i32, i32, ptr, i32, i32, i32, i32, i32, ptr, [4 x ptr], [4 x ptr], [4 x ptr], i32, ptr, i32, i32, [16 x i8], [16 x i8], [16 x i8], i32, i32, i8, i8, i8, i16, i16, i32, i8, i32, ptr, i32, i32, i32, i32, ptr, i32, [4 x ptr], i32, i32, i32, [10 x i32], i32, i32, i32, i32, i32, ptr, ptr, ptr, ptr, ptr, ptr, ptr, ptr, ptr, ptr, ptr }
%struct.jpeg_memory_mgr = type { ptr, ptr, ptr, ptr, ptr, ptr, ptr, ptr, ptr, ptr, ptr, i64, i64 }
%struct.my_post_controller = type { %struct.jpeg_d_post_controller, ptr, ptr, i32, i32, i32 }
%struct.jpeg_d_post_controller = type { ptr, ptr, ptr, ptr }
%struct.jpeg_color_quantizer = type { ptr, ptr, ptr, ptr, ptr }

; Function Attrs: nounwind uwtable
define internal void @post_process_2pass(ptr noundef %0, ptr noundef %1, ptr noundef %2, i32 noundef %3, ptr noundef %4, ptr noundef %5, i32 noundef %6) #0 {
  %8 = alloca ptr, align 8
  %9 = alloca ptr, align 8
  %10 = alloca ptr, align 8
  %11 = alloca i32, align 4
  %12 = alloca ptr, align 8
  %13 = alloca ptr, align 8
  %14 = alloca i32, align 4
  %15 = alloca ptr, align 8
  %16 = alloca i32, align 4
  %17 = alloca i32, align 4
  store ptr %0, ptr %8, align 8, !tbaa !3
  store ptr %1, ptr %9, align 8, !tbaa !68
  store ptr %2, ptr %10, align 8, !tbaa !70
  store i32 %3, ptr %11, align 4, !tbaa !8
  store ptr %4, ptr %12, align 8, !tbaa !71
  store ptr %5, ptr %13, align 8, !tbaa !70
  store i32 %6, ptr %14, align 4, !tbaa !8
  call void @llvm.lifetime.start.p0(i64 8, ptr %15) #3
  %18 = load ptr, ptr %8, align 8, !tbaa !3
  %19 = getelementptr inbounds nuw %struct.jpeg_decompress_struct, ptr %18, i32 0, i32 80
  %20 = load ptr, ptr %19, align 8, !tbaa !46
  store ptr %20, ptr %15, align 8, !tbaa !45
  call void @llvm.lifetime.start.p0(i64 4, ptr %16) #3
  call void @llvm.lifetime.start.p0(i64 4, ptr %17) #3
  %21 = load ptr, ptr %15, align 8, !tbaa !45
  %22 = getelementptr inbounds nuw %struct.my_post_controller, ptr %21, i32 0, i32 5
  %23 = load i32, ptr %22, align 8, !tbaa !66
  %24 = icmp eq i32 %23, 0
  br i1 %24, label %25, label %44

25:                                               ; preds = %7
  %26 = load ptr, ptr %8, align 8, !tbaa !3
  %27 = getelementptr inbounds nuw %struct.jpeg_decompress_struct, ptr %26, i32 0, i32 1
  %28 = load ptr, ptr %27, align 8, !tbaa !42
  %29 = getelementptr inbounds nuw %struct.jpeg_memory_mgr, ptr %28, i32 0, i32 7
  %30 = load ptr, ptr %29, align 8, !tbaa !62
  %31 = load ptr, ptr %8, align 8, !tbaa !3
  %32 = load ptr, ptr %15, align 8, !tbaa !45
  %33 = getelementptr inbounds nuw %struct.my_post_controller, ptr %32, i32 0, i32 1
  %34 = load ptr, ptr %33, align 8, !tbaa !51
  %35 = load ptr, ptr %15, align 8, !tbaa !45
  %36 = getelementptr inbounds nuw %struct.my_post_controller, ptr %35, i32 0, i32 4
  %37 = load i32, ptr %36, align 4, !tbaa !67
  %38 = load ptr, ptr %15, align 8, !tbaa !45
  %39 = getelementptr inbounds nuw %struct.my_post_controller, ptr %38, i32 0, i32 3
  %40 = load i32, ptr %39, align 8, !tbaa !55
  %41 = call ptr %30(ptr noundef %31, ptr noundef %34, i32 noundef %37, i32 noundef %40, i32 noundef 0)
  %42 = load ptr, ptr %15, align 8, !tbaa !45
  %43 = getelementptr inbounds nuw %struct.my_post_controller, ptr %42, i32 0, i32 2
  store ptr %41, ptr %43, align 8, !tbaa !52
  br label %44

44:                                               ; preds = %25, %7
  %45 = load ptr, ptr %15, align 8, !tbaa !45
  %46 = getelementptr inbounds nuw %struct.my_post_controller, ptr %45, i32 0, i32 3
  %47 = load i32, ptr %46, align 8, !tbaa !55
  %48 = load ptr, ptr %15, align 8, !tbaa !45
  %49 = getelementptr inbounds nuw %struct.my_post_controller, ptr %48, i32 0, i32 5
  %50 = load i32, ptr %49, align 8, !tbaa !66
  %51 = sub i32 %47, %50
  store i32 %51, ptr %16, align 4, !tbaa !8
  %52 = load i32, ptr %14, align 4, !tbaa !8
  %53 = load ptr, ptr %13, align 8, !tbaa !70
  %54 = load i32, ptr %53, align 4, !tbaa !8
  %55 = sub i32 %52, %54
  store i32 %55, ptr %17, align 4, !tbaa !8
  %56 = load i32, ptr %16, align 4, !tbaa !8
  %57 = load i32, ptr %17, align 4, !tbaa !8
  %58 = icmp ugt i32 %56, %57
  br i1 %58, label %59, label %61

59:                                               ; preds = %44
  %60 = load i32, ptr %17, align 4, !tbaa !8
  store i32 %60, ptr %16, align 4, !tbaa !8
  br label %61

61:                                               ; preds = %59, %44
  %62 = load ptr, ptr %8, align 8, !tbaa !3
  %63 = getelementptr inbounds nuw %struct.jpeg_decompress_struct, ptr %62, i32 0, i32 28
  %64 = load i32, ptr %63, align 4, !tbaa !59
  %65 = load ptr, ptr %15, align 8, !tbaa !45
  %66 = getelementptr inbounds nuw %struct.my_post_controller, ptr %65, i32 0, i32 4
  %67 = load i32, ptr %66, align 4, !tbaa !67
  %68 = sub i32 %64, %67
  store i32 %68, ptr %17, align 4, !tbaa !8
  %69 = load i32, ptr %16, align 4, !tbaa !8
  %70 = load i32, ptr %17, align 4, !tbaa !8
  %71 = icmp ugt i32 %69, %70
  br i1 %71, label %72, label %74

72:                                               ; preds = %61
  %73 = load i32, ptr %17, align 4, !tbaa !8
  store i32 %73, ptr %16, align 4, !tbaa !8
  br label %74

74:                                               ; preds = %72, %61
  %75 = load ptr, ptr %8, align 8, !tbaa !3
  %76 = getelementptr inbounds nuw %struct.jpeg_decompress_struct, ptr %75, i32 0, i32 87
  %77 = load ptr, ptr %76, align 8, !tbaa !72
  %78 = getelementptr inbounds nuw %struct.jpeg_color_quantizer, ptr %77, i32 0, i32 1
  %79 = load ptr, ptr %78, align 8, !tbaa !73
  %80 = load ptr, ptr %8, align 8, !tbaa !3
  %81 = load ptr, ptr %15, align 8, !tbaa !45
  %82 = getelementptr inbounds nuw %struct.my_post_controller, ptr %81, i32 0, i32 2
  %83 = load ptr, ptr %82, align 8, !tbaa !52
  %84 = load ptr, ptr %15, align 8, !tbaa !45
  %85 = getelementptr inbounds nuw %struct.my_post_controller, ptr %84, i32 0, i32 5
  %86 = load i32, ptr %85, align 8, !tbaa !66
  %87 = zext i32 %86 to i64
  %88 = getelementptr inbounds nuw ptr, ptr %83, i64 %87
  %89 = load ptr, ptr %12, align 8, !tbaa !71
  %90 = load ptr, ptr %13, align 8, !tbaa !70
  %91 = load i32, ptr %90, align 4, !tbaa !8
  %92 = zext i32 %91 to i64
  %93 = getelementptr inbounds nuw ptr, ptr %89, i64 %92
  %94 = load i32, ptr %16, align 4, !tbaa !8
  call void %79(ptr noundef %80, ptr noundef %88, ptr noundef %93, i32 noundef %94)
  %95 = load i32, ptr %16, align 4, !tbaa !8
  %96 = load ptr, ptr %13, align 8, !tbaa !70
  %97 = load i32, ptr %96, align 4, !tbaa !8
  %98 = add i32 %97, %95
  store i32 %98, ptr %96, align 4, !tbaa !8
  %99 = load i32, ptr %16, align 4, !tbaa !8
  %100 = load ptr, ptr %15, align 8, !tbaa !45
  %101 = getelementptr inbounds nuw %struct.my_post_controller, ptr %100, i32 0, i32 5
  %102 = load i32, ptr %101, align 8, !tbaa !66
  %103 = add i32 %102, %99
  store i32 %103, ptr %101, align 8, !tbaa !66
  %104 = load ptr, ptr %15, align 8, !tbaa !45
  %105 = getelementptr inbounds nuw %struct.my_post_controller, ptr %104, i32 0, i32 5
  %106 = load i32, ptr %105, align 8, !tbaa !66
  %107 = load ptr, ptr %15, align 8, !tbaa !45
  %108 = getelementptr inbounds nuw %struct.my_post_controller, ptr %107, i32 0, i32 3
  %109 = load i32, ptr %108, align 8, !tbaa !55
  %110 = icmp uge i32 %106, %109
  br i1 %110, label %111, label %121

111:                                              ; preds = %74
  %112 = load ptr, ptr %15, align 8, !tbaa !45
  %113 = getelementptr inbounds nuw %struct.my_post_controller, ptr %112, i32 0, i32 3
  %114 = load i32, ptr %113, align 8, !tbaa !55
  %115 = load ptr, ptr %15, align 8, !tbaa !45
  %116 = getelementptr inbounds nuw %struct.my_post_controller, ptr %115, i32 0, i32 4
  %117 = load i32, ptr %116, align 4, !tbaa !67
  %118 = add i32 %117, %114
  store i32 %118, ptr %116, align 4, !tbaa !67
  %119 = load ptr, ptr %15, align 8, !tbaa !45
  %120 = getelementptr inbounds nuw %struct.my_post_controller, ptr %119, i32 0, i32 5
  store i32 0, ptr %120, align 8, !tbaa !66
  br label %121

121:                                              ; preds = %111, %74
  call void @llvm.lifetime.end.p0(i64 4, ptr %17) #3
  call void @llvm.lifetime.end.p0(i64 4, ptr %16) #3
  call void @llvm.lifetime.end.p0(i64 8, ptr %15) #3
  ret void
}