; Function Attrs: nounwind uwtable
define internal void @post_process_2pass(ptr noundef %0, ptr readnone captures(none) %1, ptr readnone captures(none) %2, i32 %3, ptr noundef %4, ptr noundef captures(none) %5, i32 noundef %6) #0 {
  %8 = getelementptr inbounds nuw i8, ptr %0, i64 568
  %9 = load ptr, ptr %8, align 8, !tbaa !42
  %10 = getelementptr inbounds nuw i8, ptr %9, i64 56
  %11 = load i32, ptr %10, align 8, !tbaa !62
  %12 = icmp eq i32 %11, 0
  br i1 %12, label %13, label %._crit_edge

._crit_edge:                                      ; preds = %7
  %.phi.trans.insert = getelementptr inbounds nuw i8, ptr %9, i64 40
  %.pre39 = load ptr, ptr %.phi.trans.insert, align 8, !tbaa !56
  br label %26

13:                                               ; preds = %7
  %14 = getelementptr inbounds nuw i8, ptr %0, i64 8
  %15 = load ptr, ptr %14, align 8, !tbaa !39
  %16 = getelementptr inbounds nuw i8, ptr %15, i64 56
  %17 = load ptr, ptr %16, align 8, !tbaa !58
  %18 = getelementptr inbounds nuw i8, ptr %9, i64 32
  %19 = load ptr, ptr %18, align 8, !tbaa !54
  %20 = getelementptr inbounds nuw i8, ptr %9, i64 52
  %21 = load i32, ptr %20, align 4, !tbaa !63
  %22 = getelementptr inbounds nuw i8, ptr %9, i64 48
  %23 = load i32, ptr %22, align 8, !tbaa !49
  %24 = tail call ptr %17(ptr noundef nonnull %0, ptr noundef %19, i32 noundef %21, i32 noundef %23, i32 noundef 0) #5
  %25 = getelementptr inbounds nuw i8, ptr %9, i64 40
  store ptr %24, ptr %25, align 8, !tbaa !56
  %.pre = load i32, ptr %10, align 8, !tbaa !62
  br label %26

26:                                               ; preds = %._crit_edge, %13
  %27 = phi ptr [ %24, %13 ], [ %.pre39, %._crit_edge ]
  %28 = phi i32 [ %.pre, %13 ], [ %11, %._crit_edge ]
  %29 = getelementptr inbounds nuw i8, ptr %9, i64 48
  %30 = load i32, ptr %29, align 8, !tbaa !49
  %31 = sub i32 %30, %28
  %32 = load i32, ptr %5, align 4, !tbaa !64
  %33 = sub i32 %6, %32
  %spec.select = tail call i32 @llvm.umin.i32(i32 %31, i32 %33)
  %34 = getelementptr inbounds nuw i8, ptr %0, i64 140
  %35 = load i32, ptr %34, align 4, !tbaa !53
  %36 = getelementptr inbounds nuw i8, ptr %9, i64 52
  %37 = load i32, ptr %36, align 4, !tbaa !63
  %38 = sub i32 %35, %37
  %.1 = tail call i32 @llvm.umin.i32(i32 %spec.select, i32 %38)
  %39 = getelementptr inbounds nuw i8, ptr %0, i64 624
  %40 = load ptr, ptr %39, align 8, !tbaa !65
  %41 = getelementptr inbounds nuw i8, ptr %40, i64 8
  %42 = load ptr, ptr %41, align 8, !tbaa !66
  %43 = zext i32 %28 to i64
  %44 = getelementptr inbounds nuw ptr, ptr %27, i64 %43
  %45 = zext i32 %32 to i64
  %46 = getelementptr inbounds nuw ptr, ptr %4, i64 %45
  tail call void %42(ptr noundef nonnull %0, ptr noundef %44, ptr noundef %46, i32 noundef %.1) #5
  %47 = load i32, ptr %5, align 4, !tbaa !64
  %48 = add i32 %47, %.1
  store i32 %48, ptr %5, align 4, !tbaa !64
  %49 = load i32, ptr %10, align 8, !tbaa !62
  %50 = add i32 %49, %.1
  store i32 %50, ptr %10, align 8, !tbaa !62
  %51 = load i32, ptr %29, align 8, !tbaa !49
  %.not = icmp ult i32 %50, %51
  br i1 %.not, label %55, label %52

52:                                               ; preds = %26
  %53 = load i32, ptr %36, align 4, !tbaa !63
  %54 = add i32 %53, %51
  store i32 %54, ptr %36, align 4, !tbaa !63
  store i32 0, ptr %10, align 8, !tbaa !62
  br label %55

55:                                               ; preds = %52, %26
  ret void
}